; ModuleID = 'source-C-CXX/44/2332.c'
source_filename = "source-C-CXX/44/2332.c"
target datalayout = "e-m:e-p270:32:32-p271:32:32-p272:64:64-i64:64-f80:128-n8:16:32:64-S128"
target triple = "x86_64-pc-linux-gnu"

@.str = private unnamed_addr constant [5 x i8] c"%s%s\00", align 1
@.str.1 = private unnamed_addr constant [4 x i8] c"%d\0A\00", align 1

; Function Attrs: nofree nounwind sspstrong uwtable
define dso_local i32 @main() local_unnamed_addr #0 {
  %1 = alloca [51 x i8], align 16
  %2 = alloca [51 x i8], align 16
  %3 = alloca [51 x i8], align 16
  %4 = getelementptr inbounds [51 x i8], [51 x i8]* %3, i64 0, i64 0
  %5 = getelementptr inbounds [51 x i8], [51 x i8]* %1, i64 0, i64 0
  call void @llvm.lifetime.start.p0i8(i64 51, i8* nonnull %5) #6
  call void @llvm.memset.p0i8.i64(i8* noundef nonnull align 16 dereferenceable(51) %5, i8 0, i64 51, i1 false)
  %6 = getelementptr inbounds [51 x i8], [51 x i8]* %2, i64 0, i64 0
  call void @llvm.lifetime.start.p0i8(i64 51, i8* nonnull %6) #6
  call void @llvm.memset.p0i8.i64(i8* noundef nonnull align 16 dereferenceable(51) %6, i8 0, i64 51, i1 false)
  %7 = getelementptr inbounds [51 x i8], [51 x i8]* %3, i64 0, i64 0
  call void @llvm.lifetime.start.p0i8(i64 51, i8* nonnull %7) #6
  call void @llvm.memset.p0i8.i64(i8* noundef nonnull align 16 dereferenceable(51) %7, i8 0, i64 51, i1 false)
  %8 = call i32 (i8*, ...) @__isoc99_scanf(i8* getelementptr inbounds ([5 x i8], [5 x i8]* @.str, i64 0, i64 0), [51 x i8]* nonnull %1, [51 x i8]* nonnull %2)
  %9 = call i64 @strlen(i8* noundef nonnull %5) #7
  %10 = icmp eq i64 %9, 0
  br i1 %10, label %23, label %11

11:                                               ; preds = %0
  %12 = call i64 @strlen(i8* noundef nonnull %6) #7
  %13 = add i64 %12, 1
  %14 = sub i64 %13, %9
  br label %15

15:                                               ; preds = %11, %20
  %16 = phi i64 [ 0, %11 ], [ %21, %20 ]
  %17 = getelementptr [51 x i8], [51 x i8]* %2, i64 0, i64 %16
  call void @llvm.memcpy.p0i8.p0i8.i64(i8* nonnull align 16 %4, i8* align 1 %17, i64 %9, i1 false)
  %18 = call i32 @strcmp(i8* noundef nonnull %7, i8* noundef nonnull %5) #7
  %19 = icmp eq i32 %18, 0
  br i1 %19, label %26, label %20

20:                                               ; preds = %15
  %21 = add nuw i64 %16, 1
  %22 = icmp eq i64 %21, %14
  br i1 %22, label %31, label %15, !llvm.loop !5

23:                                               ; preds = %0
  %24 = call i32 @strcmp(i8* noundef nonnull %7, i8* noundef nonnull %5) #7
  %25 = icmp eq i32 %24, 0
  br i1 %25, label %28, label %31

26:                                               ; preds = %15
  %27 = trunc i64 %16 to i32
  br label %28

28:                                               ; preds = %26, %23
  %29 = phi i32 [ 0, %23 ], [ %27, %26 ]
  %30 = call i32 (i8*, ...) @printf(i8* nonnull dereferenceable(1) getelementptr inbounds ([4 x i8], [4 x i8]* @.str.1, i64 0, i64 0), i32 %29)
  br label %31

31:                                               ; preds = %20, %23, %28
  call void @llvm.lifetime.end.p0i8(i64 51, i8* nonnull %7) #6
  call void @llvm.lifetime.end.p0i8(i64 51, i8* nonnull %6) #6
  call void @llvm.lifetime.end.p0i8(i64 51, i8* nonnull %5) #6
  ret i32 0
}

; Function Attrs: argmemonly mustprogress nofree nosync nounwind willreturn
declare void @llvm.lifetime.start.p0i8(i64 immarg, i8* nocapture) #1

; Function Attrs: argmemonly mustprogress nofree nounwind willreturn writeonly
declare void @llvm.memset.p0i8.i64(i8* nocapture writeonly, i8, i64, i1 immarg) #2

; Function Attrs: nofree nounwind
declare noundef i32 @__isoc99_scanf(i8* nocapture noundef readonly, ...) local_unnamed_addr #3

; Function Attrs: argmemonly mustprogress nofree nounwind readonly willreturn
declare i64 @strlen(i8* nocapture) local_unnamed_addr #4

; Function Attrs: argmemonly mustprogress nofree nounwind readonly willreturn
declare i32 @strcmp(i8* nocapture, i8* nocapture) local_unnamed_addr #4

; Function Attrs: nofree nounwind
declare noundef i32 @printf(i8* nocapture noundef readonly, ...) local_unnamed_addr #3

; Function Attrs: argmemonly mustprogress nofree nosync nounwind willreturn
declare void @llvm.lifetime.end.p0i8(i64 immarg, i8* nocapture) #1

; Function Attrs: argmemonly nofree nounwind willreturn
declare void @llvm.memcpy.p0i8.p0i8.i64(i8* noalias nocapture writeonly, i8* noalias nocapture readonly, i64, i1 immarg) #5


!llvm.module.flags = !{!0, !1, !2, !3}
!llvm.ident = !{!4}

!0 = !{i32 1, !"wchar_size", i32 4}
!1 = !{i32 7, !"PIC Level", i32 2}
!2 = !{i32 7, !"PIE Level", i32 2}
!3 = !{i32 7, !"uwtable", i32 1}
!4 = !{!"clang version 13.0.0"}
!5 = distinct !{!5, !6}
!6 = !{!"llvm.loop.mustprogress"}
